Certificate:
    Data:
        Version: 1 (0x0)
        Serial Number: 1 (0x1)
    Signature Algorithm: md5WithRSAEncryption
        Issuer: O=Teknik Informatika, L=Metropolis, C=US
        Validity
            Not Before: Apr 30 13:55:32 2015 GMT
            Not After : Apr 29 13:55:32 2016 GMT
        Subject: C=US, O=Teknik Informatika
        Subject Public Key Info:
            Public Key Algorithm: rsaEncryption
                Public-Key: (1024 bit)
                Modulus:
                    00:c7:25:6e:09:61:48:fc:90:be:2e:f8:70:ae:62:
                    3d:cf:c0:bc:8e:61:d0:79:37:87:ab:e6:00:8a:91:
                    f5:26:15:a2:e9:01:f2:6d:65:83:ce:1f:fd:28:3a:
                    cc:b6:27:90:43:96:0c:89:b4:f4:d8:2c:64:12:f7:
                    e8:bb:08:08:75:44:ad:aa:5c:3c:4a:5f:79:33:59:
                    17:af:0e:2d:fd:df:7b:4d:49:23:9d:e1:b4:29:00:
                    70:fb:c1:ef:63:07:75:4e:c3:ca:49:19:d9:c7:22:
                    81:17:b1:ef:4e:1a:c2:02:c2:29:71:b1:57:c6:5e:
                    dd:07:57:50:ee:cf:31:2c:cb
                Exponent: 65537 (0x10001)
    Signature Algorithm: md5WithRSAEncryption
         81:4c:3b:18:14:d5:b6:dc:f1:1a:cb:0a:7c:be:dc:93:ce:e7:
         9e:bd:98:ae:82:be:54:a1:79:83:49:7e:eb:76:24:7d:7e:9e:
         e3:07:13:2f:e1:ea:92:24:ca:83:e3:fa:d2:56:a6:d5:b3:b8:
         b4:88:91:a8:a5:8e:4c:ca:ca:dd:0c:b3:4b:ae:2f:71:7c:40:
         55:4a:d9:83:2b:df:f8:e2:cc:7e:2f:ae:b3:40:74:4d:5b:94:
         a7:09:0e:27:47:f9:f0:c4:91:1b:ba:a1:c3:84:4a:50:18:e8:
         f4:30:fc:87:7e:1a:01:62:ee:38:b3:46:ed:20:71:ba:4b:ab:
         86:6e
-----BEGIN CERTIFICATE-----
MIIB2DCCAUECAQEwDQYJKoZIhvcNAQEEBQAwPzEbMBkGA1UEChMSVGVrbmlrIElu
Zm9ybWF0aWthMRMwEQYDVQQHEwpNZXRyb3BvbGlzMQswCQYDVQQGEwJVUzAeFw0x
NTA0MzAxMzU1MzJaFw0xNjA0MjkxMzU1MzJaMCoxCzAJBgNVBAYTAlVTMRswGQYD
VQQKExJUZWtuaWsgSW5mb3JtYXRpa2EwgZ8wDQYJKoZIhvcNAQEBBQADgY0AMIGJ
AoGBAMclbglhSPyQvi74cK5iPc/AvI5h0Hk3h6vmAIqR9SYVoukB8m1lg84f/Sg6
zLYnkEOWDIm09NgsZBL36LsICHVErapcPEpfeTNZF68OLf3fe01JI53htCkAcPvB
72MHdU7DykkZ2ccigRex704awgLCKXGxV8Ze3QdXUO7PMSzLAgMBAAEwDQYJKoZI
hvcNAQEEBQADgYEAgUw7GBTVttzxGssKfL7ck87nnr2YroK+VKF5g0l+63YkfX6e
4wcTL+HqkiTKg+P60lam1bO4tIiRqKWOTMrK3QyzS64vcXxAVUrZgyvf+OLMfi+u
s0B0TVuUpwkOJ0f58MSRG7qhw4RKUBjo9DD8h34aAWLuOLNG7SBxukurhm4=
-----END CERTIFICATE-----
